(dp0
S'n_estimators'
p1
I91
sS'learning_rate'
p2
cnumpy.core.multiarray
scalar
p3
(cnumpy
dtype
p4
(S'f8'
p5
I0
I1
tp6
Rp7
(I3
S'<'
p8
NNNI-1
I-1
I0
tp9
bS'\xcd\xcc\xcc\xcc\xcc\xcc\xec?'
p10
tp11
Rp12
s.