(dp0
S'warm_start'
p1
I00
sS'oob_score'
p2
I00
sS'n_jobs'
p3
I1
sS'verbose'
p4
I0
sS'max_leaf_nodes'
p5
NsS'bootstrap'
p6
I00
sS'min_samples_leaf'
p7
I1
sS'n_estimators'
p8
I400
sS'min_samples_split'
p9
I2
sS'min_weight_fraction_leaf'
p10
F0.0
sS'criterion'
p11
S'gini'
p12
sS'random_state'
p13
NsS'min_impurity_split'
p14
F1e-07
sS'max_features'
p15
S'log2'
p16
sS'max_depth'
p17
I8
sS'class_weight'
p18
Ns.