(dp0
S'presort'
p1
S'auto'
p2
sS'loss'
p3
S'deviance'
p4
sS'verbose'
p5
I0
sS'subsample'
p6
F1.0
sS'max_leaf_nodes'
p7
NsS'learning_rate'
p8
F0.15
sS'warm_start'
p9
I00
sS'min_samples_leaf'
p10
I1
sS'n_estimators'
p11
I100
sS'min_samples_split'
p12
I2
sS'init'
p13
NsS'min_weight_fraction_leaf'
p14
F0.0
sS'criterion'
p15
S'friedman_mse'
p16
sS'random_state'
p17
NsS'min_impurity_split'
p18
F1e-07
sS'max_features'
p19
S'log2'
p20
sS'max_depth'
p21
I9
s.