(dp0
S'kernel'
p1
S'linear'
p2
sS'C'
p3
F2.0
sS'verbose'
p4
I00
sS'probability'
p5
I00
sS'degree'
p6
I3
sS'shrinking'
p7
I01
sS'max_iter'
p8
I-1
sS'decision_function_shape'
p9
NsS'random_state'
p10
NsS'tol'
p11
F0.001
sS'cache_size'
p12
I200
sS'coef0'
p13
F0.0
sS'gamma'
p14
S'auto'
p15
sS'class_weight'
p16
Ns.