(dp0
S'kernel'
p1
S'rbf'
p2
sS'C'
p3
cnumpy.core.multiarray
scalar
p4
(cnumpy
dtype
p5
(S'f8'
p6
I0
I1
tp7
Rp8
(I3
S'<'
p9
NNNI-1
I-1
I0
tp10
bS'\x00\x00\x00\x00\x00\x00\x08@'
p11
tp12
Rp13
sS'gamma'
p14
g4
(g8
S'{\x14\xaeG\xe1z\x84?'
p15
tp16
Rp17
s.