(dp0
S'colsample_bytree'
p1
F0.8
sS'learning_rate'
p2
cnumpy.core.multiarray
scalar
p3
(cnumpy
dtype
p4
(S'f8'
p5
I0
I1
tp6
Rp7
(I3
S'<'
p8
NNNI-1
I-1
I0
tp9
bS'333333\xd3?'
p10
tp11
Rp12
sS'min_child_weight'
p13
I2
sS'objective'
p14
S'binary:logistic'
p15
sS'max_depth'
p16
I3
sS'gamma'
p17
g3
(g7
S'\x9a\x99\x99\x99\x99\x99\xb9?'
p18
tp19
Rp20
s.